target datalayout = "e-m:e-p270:32:32-p271:32:32-p272:64:64-i64:64-i128:128-f80:128-n8:16:32:64-S128"
target triple = "x86_64-pc-linux-gnu"

%"class.llvm::pdb::InputFile" = type { %"class.std::unique_ptr", %"class.llvm::object::OwningBinary", %"class.std::unique_ptr.10", %"class.llvm::PointerUnion", %"class.std::unique_ptr.21", %"class.std::unique_ptr.21" }
%"class.std::unique_ptr" = type { %"struct.std::__uniq_ptr_data" }
%"struct.std::__uniq_ptr_data" = type { %"class.std::__uniq_ptr_impl" }
%"class.std::__uniq_ptr_impl" = type { %"class.std::tuple" }
%"class.std::tuple" = type { %"struct.std::_Tuple_impl" }
%"struct.std::_Tuple_impl" = type { %"struct.std::_Head_base.1" }
%"struct.std::_Head_base.1" = type { ptr }
%"class.llvm::object::OwningBinary" = type { %"class.std::unique_ptr.2", %"class.std::unique_ptr.10" }
%"class.std::unique_ptr.2" = type { %"struct.std::__uniq_ptr_data.3" }
%"struct.std::__uniq_ptr_data.3" = type { %"class.std::__uniq_ptr_impl.4" }
%"class.std::__uniq_ptr_impl.4" = type { %"class.std::tuple.5" }
%"class.std::tuple.5" = type { %"struct.std::_Tuple_impl.6" }
%"struct.std::_Tuple_impl.6" = type { %"struct.std::_Head_base.9" }
%"struct.std::_Head_base.9" = type { ptr }
%"class.std::unique_ptr.10" = type { %"struct.std::__uniq_ptr_data.11" }
%"struct.std::__uniq_ptr_data.11" = type { %"class.std::__uniq_ptr_impl.12" }
%"class.std::__uniq_ptr_impl.12" = type { %"class.std::tuple.13" }
%"class.std::tuple.13" = type { %"struct.std::_Tuple_impl.14" }
%"struct.std::_Tuple_impl.14" = type { %"struct.std::_Head_base.17" }
%"struct.std::_Head_base.17" = type { ptr }
%"class.llvm::PointerUnion" = type { %"class.llvm::pointer_union_detail::PointerUnionMembers" }
%"class.llvm::pointer_union_detail::PointerUnionMembers" = type { %"class.llvm::pointer_union_detail::PointerUnionMembers.18" }
%"class.llvm::pointer_union_detail::PointerUnionMembers.18" = type { %"class.llvm::pointer_union_detail::PointerUnionMembers.19" }
%"class.llvm::pointer_union_detail::PointerUnionMembers.19" = type { %"class.llvm::pointer_union_detail::PointerUnionMembers.20" }
%"class.llvm::pointer_union_detail::PointerUnionMembers.20" = type { %"class.llvm::PointerIntPair" }
%"class.llvm::PointerIntPair" = type { %"struct.llvm::detail::PunnedPointer" }
%"struct.llvm::detail::PunnedPointer" = type { [8 x i8] }
%"class.std::unique_ptr.21" = type { %"struct.std::__uniq_ptr_data.22" }
%"struct.std::__uniq_ptr_data.22" = type { %"class.std::__uniq_ptr_impl.23" }
%"class.std::__uniq_ptr_impl.23" = type { %"class.std::tuple.24" }
%"class.std::tuple.24" = type { %"struct.std::_Tuple_impl.25" }
%"struct.std::_Tuple_impl.25" = type { %"struct.std::_Head_base.28" }
%"struct.std::_Head_base.28" = type { ptr }

; Function Attrs: mustprogress nounwind uwtable
define linkonce_odr hidden noundef ptr @_ZN4llvm20pointer_union_detail22PointerUnionUIntTraitsIJPNS_3pdb7PDBFileEPNS_6object14COFFObjectFileEPNS_12MemoryBufferEEE18getFromVoidPointerEPv(ptr noundef %0) #0 comdat align 2 {
  %2 = alloca ptr, align 8
  store ptr %0, ptr %2, align 8
  %3 = load ptr, ptr %2, align 8
  ret ptr %3
}

; Function Attrs: mustprogress nounwind uwtable
define linkonce_odr hidden noundef i64 @_ZNK4llvm6detail13PunnedPointerIPvE5asIntEv(ptr noundef nonnull align 8 dereferenceable(8) %0) #0 comdat align 2 {
  %2 = alloca ptr, align 8
  %3 = alloca i64, align 8
  store ptr %0, ptr %2, align 8
  %4 = load ptr, ptr %2, align 8
  store i64 0, ptr %3, align 8
  %5 = getelementptr inbounds nuw %"struct.llvm::detail::PunnedPointer", ptr %4, i32 0, i32 0
  %6 = getelementptr inbounds [8 x i8], ptr %5, i64 0, i64 0
  call void @llvm.memcpy.p0.p0.i64(ptr align 8 %3, ptr align 8 %6, i64 8, i1 false)
  %7 = load i64, ptr %3, align 8
  ret i64 %7
}

; Function Attrs: mustprogress nounwind uwtable
define linkonce_odr hidden noundef i64 @_ZN4llvm18PointerIntPairInfoIPvLj2ENS_20pointer_union_detail22PointerUnionUIntTraitsIJPNS_3pdb7PDBFileEPNS_6object14COFFObjectFileEPNS_12MemoryBufferEEEEE6getIntEl(i64 noundef %0) #0 comdat align 2 {
  %2 = alloca i64, align 8
  store i64 %0, ptr %2, align 8
  %3 = load i64, ptr %2, align 8
  %4 = ashr i64 %3, 1
  %5 = and i64 %4, 3
  ret i64 %5
}

; Function Attrs: mustprogress nounwind uwtable
define linkonce_odr hidden noundef ptr @_ZN4llvm18PointerIntPairInfoIPvLj2ENS_20pointer_union_detail22PointerUnionUIntTraitsIJPNS_3pdb7PDBFileEPNS_6object14COFFObjectFileEPNS_12MemoryBufferEEEEE10getPointerEl(i64 noundef %0) #0 comdat align 2 {
  %2 = alloca i64, align 8
  store i64 %0, ptr %2, align 8
  %3 = load i64, ptr %2, align 8
  %4 = and i64 %3, -8
  %5 = inttoptr i64 %4 to ptr
  %6 = call noundef ptr @_ZN4llvm20pointer_union_detail22PointerUnionUIntTraitsIJPNS_3pdb7PDBFileEPNS_6object14COFFObjectFileEPNS_12MemoryBufferEEE18getFromVoidPointerEPv(ptr noundef %5)
  ret ptr %6
}

; Function Attrs: mustprogress nounwind uwtable
define linkonce_odr hidden noundef i64 @_ZNK4llvm6detail13PunnedPointerIPvEcvlEv(ptr noundef nonnull align 8 dereferenceable(8) %0) #0 comdat align 2 {
  %2 = alloca ptr, align 8
  store ptr %0, ptr %2, align 8
  %3 = load ptr, ptr %2, align 8
  %4 = call noundef i64 @_ZNK4llvm6detail13PunnedPointerIPvE5asIntEv(ptr noundef nonnull align 8 dereferenceable(8) %3)
  ret i64 %4
}

; Function Attrs: mustprogress nounwind uwtable
define linkonce_odr hidden noundef i32 @_ZNK4llvm14PointerIntPairIPvLj2EiNS_20pointer_union_detail22PointerUnionUIntTraitsIJPNS_3pdb7PDBFileEPNS_6object14COFFObjectFileEPNS_12MemoryBufferEEEENS_18PointerIntPairInfoIS1_Lj2ESC_EEE6getIntEv(ptr noundef nonnull align 8 dereferenceable(8) %0) #0 comdat align 2 {
  %2 = alloca ptr, align 8
  store ptr %0, ptr %2, align 8
  %3 = load ptr, ptr %2, align 8
  %4 = getelementptr inbounds nuw %"class.llvm::PointerIntPair", ptr %3, i32 0, i32 0
  %5 = call noundef i64 @_ZNK4llvm6detail13PunnedPointerIPvEcvlEv(ptr noundef nonnull align 8 dereferenceable(8) %4)
  %6 = call noundef i64 @_ZN4llvm18PointerIntPairInfoIPvLj2ENS_20pointer_union_detail22PointerUnionUIntTraitsIJPNS_3pdb7PDBFileEPNS_6object14COFFObjectFileEPNS_12MemoryBufferEEEEE6getIntEl(i64 noundef %5)
  %7 = trunc i64 %6 to i32
  ret i32 %7
}

; Function Attrs: mustprogress nounwind uwtable
define linkonce_odr hidden noundef ptr @_ZN4llvm21PointerLikeTypeTraitsIPNS_3pdb7PDBFileEE18getFromVoidPointerEPv(ptr noundef %0) #0 comdat align 2 {
  %2 = alloca ptr, align 8
  store ptr %0, ptr %2, align 8
  %3 = load ptr, ptr %2, align 8
  ret ptr %3
}

; Function Attrs: mustprogress nounwind uwtable
define linkonce_odr hidden noundef ptr @_ZNK4llvm14PointerIntPairIPvLj2EiNS_20pointer_union_detail22PointerUnionUIntTraitsIJPNS_3pdb7PDBFileEPNS_6object14COFFObjectFileEPNS_12MemoryBufferEEEENS_18PointerIntPairInfoIS1_Lj2ESC_EEE10getPointerEv(ptr noundef nonnull align 8 dereferenceable(8) %0) #0 comdat align 2 {
  %2 = alloca ptr, align 8
  store ptr %0, ptr %2, align 8
  %3 = load ptr, ptr %2, align 8
  %4 = getelementptr inbounds nuw %"class.llvm::PointerIntPair", ptr %3, i32 0, i32 0
  %5 = call noundef i64 @_ZNK4llvm6detail13PunnedPointerIPvEcvlEv(ptr noundef nonnull align 8 dereferenceable(8) %4)
  %6 = call noundef ptr @_ZN4llvm18PointerIntPairInfoIPvLj2ENS_20pointer_union_detail22PointerUnionUIntTraitsIJPNS_3pdb7PDBFileEPNS_6object14COFFObjectFileEPNS_12MemoryBufferEEEEE10getPointerEl(i64 noundef %5)
  ret ptr %6
}

; Function Attrs: mustprogress nounwind uwtable
define linkonce_odr hidden noundef zeroext i1 @_ZN4llvm24CastInfoPointerUnionImplIJPNS_3pdb7PDBFileEPNS_6object14COFFObjectFileEPNS_12MemoryBufferEEE10isPossibleIS6_EEbRNS_12PointerUnionIJS3_S6_S8_EEE(ptr noundef nonnull align 8 dereferenceable(8) %0) #0 comdat align 2 {
  %2 = alloca ptr, align 8
  store ptr %0, ptr %2, align 8
  %3 = load ptr, ptr %2, align 8
  %4 = getelementptr inbounds nuw %"class.llvm::pointer_union_detail::PointerUnionMembers.20", ptr %3, i32 0, i32 0
  %5 = call noundef i32 @_ZNK4llvm14PointerIntPairIPvLj2EiNS_20pointer_union_detail22PointerUnionUIntTraitsIJPNS_3pdb7PDBFileEPNS_6object14COFFObjectFileEPNS_12MemoryBufferEEEENS_18PointerIntPairInfoIS1_Lj2ESC_EEE6getIntEv(ptr noundef nonnull align 8 dereferenceable(8) %4)
  %6 = sext i32 %5 to i64
  %7 = icmp eq i64 %6, 1
  ret i1 %7
}

; Function Attrs: mustprogress nounwind uwtable
define linkonce_odr hidden noundef ptr @_ZN4llvm24CastInfoPointerUnionImplIJPNS_3pdb7PDBFileEPNS_6object14COFFObjectFileEPNS_12MemoryBufferEEE6doCastIS3_EET_RNS_12PointerUnionIJS3_S6_S8_EEE(ptr noundef nonnull align 8 dereferenceable(8) %0) #0 comdat align 2 {
  %2 = alloca ptr, align 8
  store ptr %0, ptr %2, align 8
  %3 = load ptr, ptr %2, align 8
  %4 = getelementptr inbounds nuw %"class.llvm::pointer_union_detail::PointerUnionMembers.20", ptr %3, i32 0, i32 0
  %5 = call noundef ptr @_ZNK4llvm14PointerIntPairIPvLj2EiNS_20pointer_union_detail22PointerUnionUIntTraitsIJPNS_3pdb7PDBFileEPNS_6object14COFFObjectFileEPNS_12MemoryBufferEEEENS_18PointerIntPairInfoIS1_Lj2ESC_EEE10getPointerEv(ptr noundef nonnull align 8 dereferenceable(8) %4)
  %6 = call noundef ptr @_ZN4llvm21PointerLikeTypeTraitsIPNS_3pdb7PDBFileEE18getFromVoidPointerEPv(ptr noundef %5)
  ret ptr %6
}

; Function Attrs: mustprogress nounwind uwtable
define linkonce_odr hidden noundef zeroext i1 @_ZN4llvm8CastInfoIPNS_6object14COFFObjectFileENS_12PointerUnionIJPNS_3pdb7PDBFileES3_PNS_12MemoryBufferEEEEvE10isPossibleERSA_(ptr noundef nonnull align 8 dereferenceable(8) %0) #0 comdat align 2 {
  %2 = alloca ptr, align 8
  store ptr %0, ptr %2, align 8
  %3 = load ptr, ptr %2, align 8
  %4 = call noundef zeroext i1 @_ZN4llvm24CastInfoPointerUnionImplIJPNS_3pdb7PDBFileEPNS_6object14COFFObjectFileEPNS_12MemoryBufferEEE10isPossibleIS6_EEbRNS_12PointerUnionIJS3_S6_S8_EEE(ptr noundef nonnull align 8 dereferenceable(8) %3)
  ret i1 %4
}

; Function Attrs: mustprogress nounwind uwtable
define linkonce_odr hidden noundef ptr @_ZN4llvm8CastInfoIPNS_3pdb7PDBFileENS_12PointerUnionIJS3_PNS_6object14COFFObjectFileEPNS_12MemoryBufferEEEEvE6doCastERSA_(ptr noundef nonnull align 8 dereferenceable(8) %0) #0 comdat align 2 {
  %2 = alloca ptr, align 8
  store ptr %0, ptr %2, align 8
  %3 = load ptr, ptr %2, align 8
  %4 = call noundef ptr @_ZN4llvm24CastInfoPointerUnionImplIJPNS_3pdb7PDBFileEPNS_6object14COFFObjectFileEPNS_12MemoryBufferEEE6doCastIS3_EET_RNS_12PointerUnionIJS3_S6_S8_EEE(ptr noundef nonnull align 8 dereferenceable(8) %3)
  ret ptr %4
}

; Function Attrs: mustprogress nounwind uwtable
define linkonce_odr hidden noundef zeroext i1 @_ZN4llvm28ConstStrippingForwardingCastIPNS_6object14COFFObjectFileEKNS_12PointerUnionIJPNS_3pdb7PDBFileES3_PNS_12MemoryBufferEEEENS_8CastInfoIS3_SA_vEEE10isPossibleERSB_(ptr noundef nonnull align 8 dereferenceable(8) %0) #0 comdat align 2 {
  %2 = alloca ptr, align 8
  store ptr %0, ptr %2, align 8
  %3 = load ptr, ptr %2, align 8
  %4 = call noundef zeroext i1 @_ZN4llvm8CastInfoIPNS_6object14COFFObjectFileENS_12PointerUnionIJPNS_3pdb7PDBFileES3_PNS_12MemoryBufferEEEEvE10isPossibleERSA_(ptr noundef nonnull align 8 dereferenceable(8) %3)
  ret i1 %4
}

; Function Attrs: mustprogress nounwind uwtable
define linkonce_odr hidden noundef ptr @_ZN4llvm4castIPNS_3pdb7PDBFileENS_12PointerUnionIJS3_PNS_6object14COFFObjectFileEPNS_12MemoryBufferEEEEEEDcRT0_(ptr noundef nonnull align 8 dereferenceable(8) %0) #0 comdat {
  %2 = alloca ptr, align 8
  store ptr %0, ptr %2, align 8
  %3 = load ptr, ptr %2, align 8
  %4 = call noundef ptr @_ZN4llvm8CastInfoIPNS_3pdb7PDBFileENS_12PointerUnionIJS3_PNS_6object14COFFObjectFileEPNS_12MemoryBufferEEEEvE6doCastERSA_(ptr noundef nonnull align 8 dereferenceable(8) %3)
  ret ptr %4
}

; Function Attrs: mustprogress nounwind uwtable
define linkonce_odr hidden noundef zeroext i1 @_ZN4llvm3isaIPNS_6object14COFFObjectFileENS_12PointerUnionIJPNS_3pdb7PDBFileES3_PNS_12MemoryBufferEEEEEEbRKT0_(ptr noundef nonnull align 8 dereferenceable(8) %0) #0 comdat {
  %2 = alloca ptr, align 8
  store ptr %0, ptr %2, align 8
  %3 = load ptr, ptr %2, align 8
  %4 = call noundef zeroext i1 @_ZN4llvm28ConstStrippingForwardingCastIPNS_6object14COFFObjectFileEKNS_12PointerUnionIJPNS_3pdb7PDBFileES3_PNS_12MemoryBufferEEEENS_8CastInfoIS3_SA_vEEE10isPossibleERSB_(ptr noundef nonnull align 8 dereferenceable(8) %3)
  ret i1 %4
}

; Function Attrs: mustprogress nounwind uwtable
define dso_local noundef nonnull align 8 dereferenceable(248) ptr @_ZN4llvm3pdb9InputFile5typesEv(ptr noundef nonnull align 8 dereferenceable(56) %0) #0 align 2 {
  %2 = alloca ptr, align 8
  store ptr %0, ptr %2, align 8
  %3 = load ptr, ptr %2, align 8
  %4 = call noundef nonnull align 8 dereferenceable(248) ptr @_ZN4llvm3pdb9InputFile25getOrCreateTypeCollectionENS1_18TypeCollectionKindE(ptr noundef nonnull align 8 dereferenceable(56) %3, i32 noundef 0)
  ret ptr %4
}

; Function Attrs: mustprogress nounwind uwtable
define dso_local noundef nonnull align 8 dereferenceable(280) ptr @_ZN4llvm3pdb9InputFile3pdbEv(ptr noundef nonnull align 8 dereferenceable(56) %0) #0 align 2 {
  %2 = alloca ptr, align 8
  store ptr %0, ptr %2, align 8
  %3 = load ptr, ptr %2, align 8
  %4 = getelementptr inbounds nuw %"class.llvm::pdb::InputFile", ptr %3, i32 0, i32 3
  %5 = call noundef ptr @_ZN4llvm4castIPNS_3pdb7PDBFileENS_12PointerUnionIJS3_PNS_6object14COFFObjectFileEPNS_12MemoryBufferEEEEEEDcRT0_(ptr noundef nonnull align 8 dereferenceable(8) %4)
  ret ptr %5
}

; Function Attrs: mustprogress nounwind uwtable
define dso_local noundef zeroext i1 @_ZNK4llvm3pdb9InputFile5isObjEv(ptr noundef nonnull align 8 dereferenceable(56) %0) #0 align 2 {
  %2 = alloca ptr, align 8
  store ptr %0, ptr %2, align 8
  %3 = load ptr, ptr %2, align 8
  %4 = getelementptr inbounds nuw %"class.llvm::pdb::InputFile", ptr %3, i32 0, i32 3
  %5 = call noundef zeroext i1 @_ZN4llvm3isaIPNS_6object14COFFObjectFileENS_12PointerUnionIJPNS_3pdb7PDBFileES3_PNS_12MemoryBufferEEEEEEbRKT0_(ptr noundef nonnull align 8 dereferenceable(8) %4)
  ret i1 %5
}

; Function Attrs: mustprogress nounwind uwtable
define dso_local noundef nonnull align 8 dereferenceable(248) ptr @_ZN4llvm3pdb9InputFile3idsEv(ptr noundef nonnull align 8 dereferenceable(56) %0) #0 align 2 {
  %2 = alloca ptr, align 8
  %3 = alloca ptr, align 8
  store ptr %0, ptr %3, align 8
  %4 = load ptr, ptr %3, align 8
  %5 = call noundef zeroext i1 @_ZNK4llvm3pdb9InputFile5isObjEv(ptr noundef nonnull align 8 dereferenceable(56) %4)
  br i1 %5, label %9, label %6

6:                                                ; preds = %1
  %7 = call noundef nonnull align 8 dereferenceable(280) ptr @_ZN4llvm3pdb9InputFile3pdbEv(ptr noundef nonnull align 8 dereferenceable(56) %4)
  %8 = call noundef zeroext i1 @_ZNK4llvm3pdb7PDBFile15hasPDBIpiStreamEv(ptr noundef nonnull align 8 dereferenceable(280) %7)
  br i1 %8, label %11, label %9

9:                                                ; preds = %6, %1
  %10 = call noundef nonnull align 8 dereferenceable(248) ptr @_ZN4llvm3pdb9InputFile5typesEv(ptr noundef nonnull align 8 dereferenceable(56) %4)
  store ptr %10, ptr %2, align 8
  br label %13

11:                                               ; preds = %6
  %12 = call noundef nonnull align 8 dereferenceable(248) ptr @_ZN4llvm3pdb9InputFile25getOrCreateTypeCollectionENS1_18TypeCollectionKindE(ptr noundef nonnull align 8 dereferenceable(56) %4, i32 noundef 1)
  store ptr %12, ptr %2, align 8
  br label %13

13:                                               ; preds = %11, %9
  %14 = load ptr, ptr %2, align 8
  ret ptr %14
}