; Function Attrs: mustprogress nounwind uwtable
define dso_local noundef nonnull align 8 dereferenceable(248) ptr @_ZN4llvm3pdb9InputFile3idsEv(ptr nocapture noundef nonnull align 8 dereferenceable(56) %0) local_unnamed_addr #1 align 2 {
  %2 = getelementptr inbounds nuw i8, ptr %0, i64 32
  %.0.copyload.i.i.i.i.i.i.i.i = load i64, ptr %2, align 8
  %3 = and i64 %.0.copyload.i.i.i.i.i.i.i.i, 6
  %4 = icmp eq i64 %3, 2
  br i1 %4, label %9, label %5

5:                                                ; preds = %1
  %6 = and i64 %.0.copyload.i.i.i.i.i.i.i.i, -8
  %7 = inttoptr i64 %6 to ptr
  %8 = tail call noundef zeroext i1 @_ZNK4llvm3pdb7PDBFile15hasPDBIpiStreamEv(ptr noundef nonnull align 8 dereferenceable(280) %7) #19
  %spec.select = zext i1 %8 to i32
  br label %9

9:                                                ; preds = %5, %1
  %.sink = phi i32 [ 0, %1 ], [ %spec.select, %5 ]
  %10 = tail call noundef nonnull align 8 dereferenceable(248) ptr @_ZN4llvm3pdb9InputFile25getOrCreateTypeCollectionENS1_18TypeCollectionKindE(ptr noundef nonnull align 8 dereferenceable(56) %0, i32 noundef %.sink)
  ret ptr %10
}